; Function Attrs: mustprogress nofree norecurse nosync nounwind willreturn memory(read, inaccessiblemem: none) uwtable
define i32 @cli_bcapi_pdf_get_flags(ptr nocapture noundef readonly %0) local_unnamed_addr #21 {
  %2 = getelementptr inbounds i8, ptr %0, i64 1056
  %3 = load i32, ptr %2, align 8
  %.not = icmp eq i32 %3, 0
  br i1 %.not, label %8, label %4

4:                                                ; preds = %1
  %5 = getelementptr inbounds i8, ptr %0, i64 1040
  %6 = load ptr, ptr %5, align 8
  %7 = load i32, ptr %6, align 4
  br label %8

8:                                                ; preds = %1, %4
  %.0 = phi i32 [ %7, %4 ], [ -1, %1 ]
  ret i32 %.0
}